target datalayout = "e-m:e-p270:32:32-p271:32:32-p272:64:64-i64:64-i128:128-f80:128-n8:16:32:64-S128"
target triple = "x86_64-unknown-linux-gnu"

@_ZN5arrow12_GLOBAL__N_118kCPUDeviceTypeNameE = internal constant [17 x i8] c"arrow::CPUDevice\00", align 16

; Function Attrs: mustprogress uwtable
define noundef zeroext i1 @_ZNK5arrow9CPUDevice6EqualsERKNS_6DeviceE(ptr noundef nonnull align 8 dereferenceable(25) %this, ptr noundef nonnull align 8 dereferenceable(25) %other) unnamed_addr #2 align 2 {
entry:
  %this.addr = alloca ptr, align 8
  %other.addr = alloca ptr, align 8
  store ptr %this, ptr %this.addr, align 8
  store ptr %other, ptr %other.addr, align 8
  %0 = load ptr, ptr %other.addr, align 8
  %vtable = load ptr, ptr %0, align 8
  %vfn = getelementptr inbounds ptr, ptr %vtable, i64 2
  %1 = load ptr, ptr %vfn, align 8
  %call = call noundef ptr %1(ptr noundef nonnull align 8 dereferenceable(25) %0)
  %cmp = icmp eq ptr %call, @_ZN5arrow12_GLOBAL__N_118kCPUDeviceTypeNameE
  ret i1 %cmp
}