; Function Attrs: mustprogress uwtable
define noundef zeroext i1 @_ZNK5arrow9CPUDevice6EqualsERKNS_6DeviceE(ptr nocapture nonnull readnone align 8 %this, ptr noundef nonnull align 8 dereferenceable(25) %other) unnamed_addr #4 align 2 {
entry:
  %vtable = load ptr, ptr %other, align 8
  %vfn = getelementptr inbounds i8, ptr %vtable, i64 16
  %0 = load ptr, ptr %vfn, align 8
  %call = tail call noundef ptr %0(ptr noundef nonnull align 8 dereferenceable(25) %other)
  %cmp = icmp eq ptr %call, @_ZN5arrow12_GLOBAL__N_118kCPUDeviceTypeNameE
  ret i1 %cmp
}